
Calculator:     file format elf64-x86-64


Disassembly of section .init:

0000000000001000 <_init>:
    1000:	f3 0f 1e fa          	endbr64 
    1004:	48 83 ec 08          	sub    $0x8,%rsp
    1008:	48 8b 05 d9 2f 00 00 	mov    0x2fd9(%rip),%rax        # 3fe8 <__gmon_start__@Base>
    100f:	48 85 c0             	test   %rax,%rax
    1012:	74 02                	je     1016 <_init+0x16>
    1014:	ff d0                	call   *%rax
    1016:	48 83 c4 08          	add    $0x8,%rsp
    101a:	c3                   	ret    

Disassembly of section .plt:

0000000000001020 <.plt>:
    1020:	ff 35 72 2f 00 00    	push   0x2f72(%rip)        # 3f98 <_GLOBAL_OFFSET_TABLE_+0x8>
    1026:	f2 ff 25 73 2f 00 00 	bnd jmp *0x2f73(%rip)        # 3fa0 <_GLOBAL_OFFSET_TABLE_+0x10>
    102d:	0f 1f 00             	nopl   (%rax)
    1030:	f3 0f 1e fa          	endbr64 
    1034:	68 00 00 00 00       	push   $0x0
    1039:	f2 e9 e1 ff ff ff    	bnd jmp 1020 <_init+0x20>
    103f:	90                   	nop
    1040:	f3 0f 1e fa          	endbr64 
    1044:	68 01 00 00 00       	push   $0x1
    1049:	f2 e9 d1 ff ff ff    	bnd jmp 1020 <_init+0x20>
    104f:	90                   	nop
    1050:	f3 0f 1e fa          	endbr64 
    1054:	68 02 00 00 00       	push   $0x2
    1059:	f2 e9 c1 ff ff ff    	bnd jmp 1020 <_init+0x20>
    105f:	90                   	nop
    1060:	f3 0f 1e fa          	endbr64 
    1064:	68 03 00 00 00       	push   $0x3
    1069:	f2 e9 b1 ff ff ff    	bnd jmp 1020 <_init+0x20>
    106f:	90                   	nop
    1070:	f3 0f 1e fa          	endbr64 
    1074:	68 04 00 00 00       	push   $0x4
    1079:	f2 e9 a1 ff ff ff    	bnd jmp 1020 <_init+0x20>
    107f:	90                   	nop
    1080:	f3 0f 1e fa          	endbr64 
    1084:	68 05 00 00 00       	push   $0x5
    1089:	f2 e9 91 ff ff ff    	bnd jmp 1020 <_init+0x20>
    108f:	90                   	nop

Disassembly of section .plt.got:

0000000000001090 <__cxa_finalize@plt>:
    1090:	f3 0f 1e fa          	endbr64 
    1094:	f2 ff 25 5d 2f 00 00 	bnd jmp *0x2f5d(%rip)        # 3ff8 <__cxa_finalize@GLIBC_2.2.5>
    109b:	0f 1f 44 00 00       	nopl   0x0(%rax,%rax,1)

Disassembly of section .plt.sec:

00000000000010a0 <mod@plt>:
    10a0:	f3 0f 1e fa          	endbr64 
    10a4:	f2 ff 25 fd 2e 00 00 	bnd jmp *0x2efd(%rip)        # 3fa8 <mod@Base>
    10ab:	0f 1f 44 00 00       	nopl   0x0(%rax,%rax,1)

00000000000010b0 <add@plt>:
    10b0:	f3 0f 1e fa          	endbr64 
    10b4:	f2 ff 25 f5 2e 00 00 	bnd jmp *0x2ef5(%rip)        # 3fb0 <add@Base>
    10bb:	0f 1f 44 00 00       	nopl   0x0(%rax,%rax,1)

00000000000010c0 <printf@plt>:
    10c0:	f3 0f 1e fa          	endbr64 
    10c4:	f2 ff 25 ed 2e 00 00 	bnd jmp *0x2eed(%rip)        # 3fb8 <printf@GLIBC_2.2.5>
    10cb:	0f 1f 44 00 00       	nopl   0x0(%rax,%rax,1)

00000000000010d0 <divi@plt>:
    10d0:	f3 0f 1e fa          	endbr64 
    10d4:	f2 ff 25 e5 2e 00 00 	bnd jmp *0x2ee5(%rip)        # 3fc0 <divi@Base>
    10db:	0f 1f 44 00 00       	nopl   0x0(%rax,%rax,1)

00000000000010e0 <mul@plt>:
    10e0:	f3 0f 1e fa          	endbr64 
    10e4:	f2 ff 25 dd 2e 00 00 	bnd jmp *0x2edd(%rip)        # 3fc8 <mul@Base>
    10eb:	0f 1f 44 00 00       	nopl   0x0(%rax,%rax,1)

00000000000010f0 <sub@plt>:
    10f0:	f3 0f 1e fa          	endbr64 
    10f4:	f2 ff 25 d5 2e 00 00 	bnd jmp *0x2ed5(%rip)        # 3fd0 <sub@Base>
    10fb:	0f 1f 44 00 00       	nopl   0x0(%rax,%rax,1)

Disassembly of section .text:

0000000000001100 <_start>:
    1100:	f3 0f 1e fa          	endbr64 
    1104:	31 ed                	xor    %ebp,%ebp
    1106:	49 89 d1             	mov    %rdx,%r9
    1109:	5e                   	pop    %rsi
    110a:	48 89 e2             	mov    %rsp,%rdx
    110d:	48 83 e4 f0          	and    $0xfffffffffffffff0,%rsp
    1111:	50                   	push   %rax
    1112:	54                   	push   %rsp
    1113:	45 31 c0             	xor    %r8d,%r8d
    1116:	31 c9                	xor    %ecx,%ecx
    1118:	48 8d 3d ca 00 00 00 	lea    0xca(%rip),%rdi        # 11e9 <main>
    111f:	ff 15 b3 2e 00 00    	call   *0x2eb3(%rip)        # 3fd8 <__libc_start_main@GLIBC_2.34>
    1125:	f4                   	hlt    
    1126:	66 2e 0f 1f 84 00 00 	cs nopw 0x0(%rax,%rax,1)
    112d:	00 00 00 

0000000000001130 <deregister_tm_clones>:
    1130:	48 8d 3d d9 2e 00 00 	lea    0x2ed9(%rip),%rdi        # 4010 <__TMC_END__>
    1137:	48 8d 05 d2 2e 00 00 	lea    0x2ed2(%rip),%rax        # 4010 <__TMC_END__>
    113e:	48 39 f8             	cmp    %rdi,%rax
    1141:	74 15                	je     1158 <deregister_tm_clones+0x28>
    1143:	48 8b 05 96 2e 00 00 	mov    0x2e96(%rip),%rax        # 3fe0 <_ITM_deregisterTMCloneTable@Base>
    114a:	48 85 c0             	test   %rax,%rax
    114d:	74 09                	je     1158 <deregister_tm_clones+0x28>
    114f:	ff e0                	jmp    *%rax
    1151:	0f 1f 80 00 00 00 00 	nopl   0x0(%rax)
    1158:	c3                   	ret    
    1159:	0f 1f 80 00 00 00 00 	nopl   0x0(%rax)

0000000000001160 <register_tm_clones>:
    1160:	48 8d 3d a9 2e 00 00 	lea    0x2ea9(%rip),%rdi        # 4010 <__TMC_END__>
    1167:	48 8d 35 a2 2e 00 00 	lea    0x2ea2(%rip),%rsi        # 4010 <__TMC_END__>
    116e:	48 29 fe             	sub    %rdi,%rsi
    1171:	48 89 f0             	mov    %rsi,%rax
    1174:	48 c1 ee 3f          	shr    $0x3f,%rsi
    1178:	48 c1 f8 03          	sar    $0x3,%rax
    117c:	48 01 c6             	add    %rax,%rsi
    117f:	48 d1 fe             	sar    %rsi
    1182:	74 14                	je     1198 <register_tm_clones+0x38>
    1184:	48 8b 05 65 2e 00 00 	mov    0x2e65(%rip),%rax        # 3ff0 <_ITM_registerTMCloneTable@Base>
    118b:	48 85 c0             	test   %rax,%rax
    118e:	74 08                	je     1198 <register_tm_clones+0x38>
    1190:	ff e0                	jmp    *%rax
    1192:	66 0f 1f 44 00 00    	nopw   0x0(%rax,%rax,1)
    1198:	c3                   	ret    
    1199:	0f 1f 80 00 00 00 00 	nopl   0x0(%rax)

00000000000011a0 <__do_global_dtors_aux>:
    11a0:	f3 0f 1e fa          	endbr64 
    11a4:	80 3d 65 2e 00 00 00 	cmpb   $0x0,0x2e65(%rip)        # 4010 <__TMC_END__>
    11ab:	75 2b                	jne    11d8 <__do_global_dtors_aux+0x38>
    11ad:	55                   	push   %rbp
    11ae:	48 83 3d 42 2e 00 00 	cmpq   $0x0,0x2e42(%rip)        # 3ff8 <__cxa_finalize@GLIBC_2.2.5>
    11b5:	00 
    11b6:	48 89 e5             	mov    %rsp,%rbp
    11b9:	74 0c                	je     11c7 <__do_global_dtors_aux+0x27>
    11bb:	48 8b 3d 46 2e 00 00 	mov    0x2e46(%rip),%rdi        # 4008 <__dso_handle>
    11c2:	e8 c9 fe ff ff       	call   1090 <__cxa_finalize@plt>
    11c7:	e8 64 ff ff ff       	call   1130 <deregister_tm_clones>
    11cc:	c6 05 3d 2e 00 00 01 	movb   $0x1,0x2e3d(%rip)        # 4010 <__TMC_END__>
    11d3:	5d                   	pop    %rbp
    11d4:	c3                   	ret    
    11d5:	0f 1f 00             	nopl   (%rax)
    11d8:	c3                   	ret    
    11d9:	0f 1f 80 00 00 00 00 	nopl   0x0(%rax)

00000000000011e0 <frame_dummy>:
    11e0:	f3 0f 1e fa          	endbr64 
    11e4:	e9 77 ff ff ff       	jmp    1160 <register_tm_clones>

00000000000011e9 <main>:
    11e9:	f3 0f 1e fa          	endbr64 
    11ed:	55                   	push   %rbp
    11ee:	48 89 e5             	mov    %rsp,%rbp
    11f1:	48 83 ec 10          	sub    $0x10,%rsp
    11f5:	c7 45 f4 0a 00 00 00 	movl   $0xa,-0xc(%rbp)
    11fc:	c7 45 f8 05 00 00 00 	movl   $0x5,-0x8(%rbp)
    1203:	c7 45 fc 00 00 00 00 	movl   $0x0,-0x4(%rbp)
    120a:	be 05 00 00 00       	mov    $0x5,%esi
    120f:	bf 0a 00 00 00       	mov    $0xa,%edi
    1214:	e8 97 fe ff ff       	call   10b0 <add@plt>
    1219:	89 45 fc             	mov    %eax,-0x4(%rbp)
    121c:	8b 45 fc             	mov    -0x4(%rbp),%eax
    121f:	89 c6                	mov    %eax,%esi
    1221:	48 8d 05 dc 0d 00 00 	lea    0xddc(%rip),%rax        # 2004 <_IO_stdin_used+0x4>
    1228:	48 89 c7             	mov    %rax,%rdi
    122b:	b8 00 00 00 00       	mov    $0x0,%eax
    1230:	e8 8b fe ff ff       	call   10c0 <printf@plt>
    1235:	be 05 00 00 00       	mov    $0x5,%esi
    123a:	bf 0a 00 00 00       	mov    $0xa,%edi
    123f:	e8 ac fe ff ff       	call   10f0 <sub@plt>
    1244:	89 45 fc             	mov    %eax,-0x4(%rbp)
    1247:	8b 45 fc             	mov    -0x4(%rbp),%eax
    124a:	89 c6                	mov    %eax,%esi
    124c:	48 8d 05 c5 0d 00 00 	lea    0xdc5(%rip),%rax        # 2018 <_IO_stdin_used+0x18>
    1253:	48 89 c7             	mov    %rax,%rdi
    1256:	b8 00 00 00 00       	mov    $0x0,%eax
    125b:	e8 60 fe ff ff       	call   10c0 <printf@plt>
    1260:	be 05 00 00 00       	mov    $0x5,%esi
    1265:	bf 0a 00 00 00       	mov    $0xa,%edi
    126a:	e8 71 fe ff ff       	call   10e0 <mul@plt>
    126f:	89 45 fc             	mov    %eax,-0x4(%rbp)
    1272:	8b 45 fc             	mov    -0x4(%rbp),%eax
    1275:	89 c6                	mov    %eax,%esi
    1277:	48 8d 05 b1 0d 00 00 	lea    0xdb1(%rip),%rax        # 202f <_IO_stdin_used+0x2f>
    127e:	48 89 c7             	mov    %rax,%rdi
    1281:	b8 00 00 00 00       	mov    $0x0,%eax
    1286:	e8 35 fe ff ff       	call   10c0 <printf@plt>
    128b:	be 05 00 00 00       	mov    $0x5,%esi
    1290:	bf 0a 00 00 00       	mov    $0xa,%edi
    1295:	e8 36 fe ff ff       	call   10d0 <divi@plt>
    129a:	89 45 fc             	mov    %eax,-0x4(%rbp)
    129d:	8b 45 fc             	mov    -0x4(%rbp),%eax
    12a0:	89 c6                	mov    %eax,%esi
    12a2:	48 8d 05 a0 0d 00 00 	lea    0xda0(%rip),%rax        # 2049 <_IO_stdin_used+0x49>
    12a9:	48 89 c7             	mov    %rax,%rdi
    12ac:	b8 00 00 00 00       	mov    $0x0,%eax
    12b1:	e8 0a fe ff ff       	call   10c0 <printf@plt>
    12b6:	be 05 00 00 00       	mov    $0x5,%esi
    12bb:	bf 0a 00 00 00       	mov    $0xa,%edi
    12c0:	e8 db fd ff ff       	call   10a0 <mod@plt>
    12c5:	89 45 fc             	mov    %eax,-0x4(%rbp)
    12c8:	8b 45 fc             	mov    -0x4(%rbp),%eax
    12cb:	89 c6                	mov    %eax,%esi
    12cd:	48 8d 05 89 0d 00 00 	lea    0xd89(%rip),%rax        # 205d <_IO_stdin_used+0x5d>
    12d4:	48 89 c7             	mov    %rax,%rdi
    12d7:	b8 00 00 00 00       	mov    $0x0,%eax
    12dc:	e8 df fd ff ff       	call   10c0 <printf@plt>
    12e1:	b8 00 00 00 00       	mov    $0x0,%eax
    12e6:	c9                   	leave  
    12e7:	c3                   	ret    

Disassembly of section .fini:

00000000000012e8 <_fini>:
    12e8:	f3 0f 1e fa          	endbr64 
    12ec:	48 83 ec 08          	sub    $0x8,%rsp
    12f0:	48 83 c4 08          	add    $0x8,%rsp
    12f4:	c3                   	ret    
